; Function Attrs: mustprogress nofree nounwind uwtable
define noundef range(i32 -2147483647, 2147483647) i32 @_ZN6google8protobuf15CEscapeInternalEPKciPcibb(ptr noundef readonly %0, i32 noundef %1, ptr noundef writeonly captures(none) %2, i32 noundef %3, i1 noundef zeroext %4, i1 noundef zeroext %5) local_unnamed_addr #11 {
  %7 = sext i32 %1 to i64
  %8 = getelementptr inbounds i8, ptr %0, i64 %7
  %9 = icmp sgt i32 %1, 0
  br i1 %9, label %.lr.ph, label %._crit_edge

.lr.ph:                                           ; preds = %6
  %10 = select i1 %4, ptr @.str.4, ptr @.str.5
  br label %11

11:                                               ; preds = %.lr.ph, %65
  %.05676 = phi i1 [ false, %.lr.ph ], [ %.1.ph, %65 ]
  %.05775 = phi i32 [ 0, %.lr.ph ], [ %.2.ph, %65 ]
  %.06274 = phi ptr [ %0, %.lr.ph ], [ %66, %65 ]
  %12 = sub nsw i32 %3, %.05775
  %13 = icmp slt i32 %12, 2
  br i1 %13, label %.loopexit, label %14

14:                                               ; preds = %11
  %15 = load i8, ptr %.06274, align 1, !tbaa !11
  switch i8 %15, label %46 [
    i8 10, label %16
    i8 13, label %21
    i8 9, label %26
    i8 34, label %31
    i8 39, label %36
    i8 92, label %41
  ]

16:                                               ; preds = %14
  %17 = sext i32 %.05775 to i64
  %18 = getelementptr inbounds i8, ptr %2, i64 %17
  store i8 92, ptr %18, align 1, !tbaa !11
  %19 = add nsw i32 %.05775, 2
  %20 = getelementptr i8, ptr %18, i64 1
  store i8 110, ptr %20, align 1, !tbaa !11
  br label %65

21:                                               ; preds = %14
  %22 = sext i32 %.05775 to i64
  %23 = getelementptr inbounds i8, ptr %2, i64 %22
  store i8 92, ptr %23, align 1, !tbaa !11
  %24 = add nsw i32 %.05775, 2
  %25 = getelementptr i8, ptr %23, i64 1
  store i8 114, ptr %25, align 1, !tbaa !11
  br label %65

26:                                               ; preds = %14
  %27 = sext i32 %.05775 to i64
  %28 = getelementptr inbounds i8, ptr %2, i64 %27
  store i8 92, ptr %28, align 1, !tbaa !11
  %29 = add nsw i32 %.05775, 2
  %30 = getelementptr i8, ptr %28, i64 1
  store i8 116, ptr %30, align 1, !tbaa !11
  br label %65

31:                                               ; preds = %14
  %32 = sext i32 %.05775 to i64
  %33 = getelementptr inbounds i8, ptr %2, i64 %32
  store i8 92, ptr %33, align 1, !tbaa !11
  %34 = add nsw i32 %.05775, 2
  %35 = getelementptr i8, ptr %33, i64 1
  store i8 34, ptr %35, align 1, !tbaa !11
  br label %65

36:                                               ; preds = %14
  %37 = sext i32 %.05775 to i64
  %38 = getelementptr inbounds i8, ptr %2, i64 %37
  store i8 92, ptr %38, align 1, !tbaa !11
  %39 = add nsw i32 %.05775, 2
  %40 = getelementptr i8, ptr %38, i64 1
  store i8 39, ptr %40, align 1, !tbaa !11
  br label %65

41:                                               ; preds = %14
  %42 = sext i32 %.05775 to i64
  %43 = getelementptr inbounds i8, ptr %2, i64 %42
  store i8 92, ptr %43, align 1, !tbaa !11
  %44 = add nsw i32 %.05775, 2
  %45 = getelementptr i8, ptr %43, i64 1
  store i8 92, ptr %45, align 1, !tbaa !11
  br label %65

46:                                               ; preds = %14
  %47 = icmp slt i8 %15, 0
  %or.cond.not = and i1 %5, %47
  br i1 %or.cond.not, label %61, label %48

48:                                               ; preds = %46
  %49 = add i8 %15, -32
  %50 = icmp ult i8 %49, 95
  br i1 %50, label %51, label %_ZN6google8protobuf8isxdigitEc.exit.thread

51:                                               ; preds = %48
  br i1 %.05676, label %52, label %61

52:                                               ; preds = %51
  %53 = add nsw i8 %15, -48
  %or.cond.i = icmp ult i8 %53, 10
  br i1 %or.cond.i, label %_ZN6google8protobuf8isxdigitEc.exit.thread, label %switch.early.test

switch.early.test:                                ; preds = %52
  switch i8 %15, label %61 [
    i8 102, label %_ZN6google8protobuf8isxdigitEc.exit.thread
    i8 101, label %_ZN6google8protobuf8isxdigitEc.exit.thread
    i8 100, label %_ZN6google8protobuf8isxdigitEc.exit.thread
    i8 99, label %_ZN6google8protobuf8isxdigitEc.exit.thread
    i8 98, label %_ZN6google8protobuf8isxdigitEc.exit.thread
    i8 97, label %_ZN6google8protobuf8isxdigitEc.exit.thread
    i8 70, label %_ZN6google8protobuf8isxdigitEc.exit.thread
    i8 69, label %_ZN6google8protobuf8isxdigitEc.exit.thread
    i8 68, label %_ZN6google8protobuf8isxdigitEc.exit.thread
    i8 67, label %_ZN6google8protobuf8isxdigitEc.exit.thread
    i8 66, label %_ZN6google8protobuf8isxdigitEc.exit.thread
    i8 65, label %_ZN6google8protobuf8isxdigitEc.exit.thread
  ]

_ZN6google8protobuf8isxdigitEc.exit.thread:       ; preds = %switch.early.test, %switch.early.test, %switch.early.test, %switch.early.test, %switch.early.test, %switch.early.test, %switch.early.test, %switch.early.test, %switch.early.test, %switch.early.test, %switch.early.test, %switch.early.test, %52, %48
  %54 = icmp samesign ult i32 %12, 4
  br i1 %54, label %.loopexit, label %55

55:                                               ; preds = %_ZN6google8protobuf8isxdigitEc.exit.thread
  %56 = sext i32 %.05775 to i64
  %57 = getelementptr inbounds i8, ptr %2, i64 %56
  %58 = zext i8 %15 to i32
  %59 = tail call i32 (ptr, ptr, ...) @sprintf(ptr noundef nonnull dereferenceable(1) %57, ptr noundef nonnull dereferenceable(1) %10, i32 noundef %58) #31
  %60 = add nsw i32 %.05775, 4
  br label %65

61:                                               ; preds = %switch.early.test, %46, %51
  %62 = add nsw i32 %.05775, 1
  %63 = sext i32 %.05775 to i64
  %64 = getelementptr inbounds i8, ptr %2, i64 %63
  store i8 %15, ptr %64, align 1, !tbaa !11
  br label %65

65:                                               ; preds = %55, %61, %41, %36, %31, %26, %21, %16
  %.2.ph = phi i32 [ %19, %16 ], [ %24, %21 ], [ %29, %26 ], [ %34, %31 ], [ %39, %36 ], [ %44, %41 ], [ %62, %61 ], [ %60, %55 ]
  %.1.ph = phi i1 [ false, %16 ], [ false, %21 ], [ false, %26 ], [ false, %31 ], [ false, %36 ], [ false, %41 ], [ false, %61 ], [ %4, %55 ]
  %66 = getelementptr inbounds nuw i8, ptr %.06274, i64 1
  %67 = icmp ult ptr %66, %8
  br i1 %67, label %11, label %._crit_edge, !llvm.loop !62

._crit_edge:                                      ; preds = %65, %6
  %.057.lcssa = phi i32 [ 0, %6 ], [ %.2.ph, %65 ]
  %.not = icmp sgt i32 %3, %.057.lcssa
  br i1 %.not, label %68, label %.loopexit

68:                                               ; preds = %._crit_edge
  %69 = sext i32 %.057.lcssa to i64
  %70 = getelementptr inbounds i8, ptr %2, i64 %69
  store i8 0, ptr %70, align 1, !tbaa !11
  br label %.loopexit

.loopexit:                                        ; preds = %_ZN6google8protobuf8isxdigitEc.exit.thread, %11, %._crit_edge, %68
  %.160 = phi i32 [ %.057.lcssa, %68 ], [ -1, %._crit_edge ], [ -1, %11 ], [ -1, %_ZN6google8protobuf8isxdigitEc.exit.thread ]
  ret i32 %.160
}